

Microchip MPLAB XC8 Assembler V2.10 build 88905656 
                                                                                               Tue Nov 01 15:59:33 2022

Microchip MPLAB XC8 C Compiler v2.10 (Free license) build 20190730164152 Og1 
     1                           	processor	16F887
     2                           	opt	pw 120
     3                           	opt	flic
     4                           	psect	cinit,global,class=CODE,merge=1,delta=2
     5                           	psect	bssCOMMON,global,class=COMMON,space=1,delta=1
     6                           	psect	bssBANK0,global,class=BANK0,space=1,delta=1
     7                           	psect	cstackCOMMON,global,class=COMMON,space=1,delta=1
     8                           	psect	cstackBANK0,global,class=BANK0,space=1,delta=1
     9                           	psect	maintext,global,class=CODE,split=1,delta=2
    10                           	psect	text1,local,class=CODE,merge=1,delta=2
    11                           	psect	text2,local,class=CODE,merge=1,delta=2
    12                           	psect	text3,local,class=CODE,merge=1,delta=2
    13                           	psect	text4,local,class=CODE,merge=1,delta=2
    14                           	psect	text5,local,class=CODE,merge=1,delta=2
    15                           	psect	text6,local,class=CODE,merge=1,delta=2
    16                           	psect	text7,local,class=CODE,merge=1,delta=2
    17                           	psect	text8,local,class=CODE,merge=1,delta=2
    18                           	psect	text9,local,class=CODE,merge=1,delta=2
    19                           	psect	intentry,global,class=CODE,delta=2
    20                           	dabs	1,0x7E,2
    21  0000                     
    22                           ; Version 2.10
    23                           ; Generated 31/07/2019 GMT
    24                           ; 
    25                           ; Copyright © 2019, Microchip Technology Inc. and its subsidiaries ("Microchip")
    26                           ; All rights reserved.
    27                           ; 
    28                           ; This software is developed by Microchip Technology Inc. and its subsidiaries ("Microch
      +                          ip").
    29                           ; 
    30                           ; Redistribution and use in source and binary forms, with or without modification, are
    31                           ; permitted provided that the following conditions are met:
    32                           ; 
    33                           ;     1. Redistributions of source code must retain the above copyright notice, this lis
      +                          t of
    34                           ;        conditions and the following disclaimer.
    35                           ; 
    36                           ;     2. Redistributions in binary form must reproduce the above copyright notice, this 
      +                          list
    37                           ;        of conditions and the following disclaimer in the documentation and/or other
    38                           ;        materials provided with the distribution.
    39                           ; 
    40                           ;     3. Microchip's name may not be used to endorse or promote products derived from th
      +                          is
    41                           ;        software without specific prior written permission.
    42                           ; 
    43                           ; THIS SOFTWARE IS PROVIDED BY MICROCHIP "AS IS" AND ANY EXPRESS OR IMPLIED WARRANTIES,
    44                           ; INCLUDING, BUT NOT LIMITED TO, THE IMPLIED WARRANTIES OF MERCHANTABILITY AND FITNESS F
      +                          OR
    45                           ; PURPOSE ARE DISCLAIMED.  IN NO EVENT SHALL MICROCHIP BE LIABLE FOR ANY DIRECT, INDIREC
      +                          T,
    46                           ; INCIDENTAL, SPECIAL, EXEMPLARY, OR CONSEQUENTIAL DAMAGES (INCLUDING BUT NOT LIMITED TO
    47                           ; PROCUREMENT OF SUBSTITUTE GOODS OR SERVICES; LOSS OF USE, DATA OR PROFITS; OR BUSINESS
    48                           ; INTERRUPTION) HOWSOEVER CAUSED AND ON ANY THEORY OF LIABILITY, WHETHER IN CONTRACT, ST
      +                          RICT
    49                           ; LIABILITY, OR TORT (INCLUDING NEGLIGENCE OR OTHERWISE) ARISING IN ANY WAY OUT OF THE U
      +                          SE OF
    50                           ; THIS SOFTWARE, EVEN IF ADVISED OF THE POSSIBILITY OF SUCH DAMAGE.
    51                           ; 
    52                           ; 
    53                           ; Code-generator required, PIC16F887 Definitions
    54                           ; 
    55                           ; SFR Addresses
    56  0000                     	;# 
    57  0001                     	;# 
    58  0002                     	;# 
    59  0003                     	;# 
    60  0004                     	;# 
    61  0005                     	;# 
    62  0006                     	;# 
    63  0007                     	;# 
    64  0008                     	;# 
    65  0009                     	;# 
    66  000A                     	;# 
    67  000B                     	;# 
    68  000C                     	;# 
    69  000D                     	;# 
    70  000E                     	;# 
    71  000E                     	;# 
    72  000F                     	;# 
    73  0010                     	;# 
    74  0011                     	;# 
    75  0012                     	;# 
    76  0013                     	;# 
    77  0014                     	;# 
    78  0015                     	;# 
    79  0015                     	;# 
    80  0016                     	;# 
    81  0017                     	;# 
    82  0018                     	;# 
    83  0019                     	;# 
    84  001A                     	;# 
    85  001B                     	;# 
    86  001B                     	;# 
    87  001C                     	;# 
    88  001D                     	;# 
    89  001E                     	;# 
    90  001F                     	;# 
    91  0081                     	;# 
    92  0085                     	;# 
    93  0086                     	;# 
    94  0087                     	;# 
    95  0088                     	;# 
    96  0089                     	;# 
    97  008C                     	;# 
    98  008D                     	;# 
    99  008E                     	;# 
   100  008F                     	;# 
   101  0090                     	;# 
   102  0091                     	;# 
   103  0092                     	;# 
   104  0093                     	;# 
   105  0093                     	;# 
   106  0093                     	;# 
   107  0094                     	;# 
   108  0095                     	;# 
   109  0096                     	;# 
   110  0097                     	;# 
   111  0098                     	;# 
   112  0099                     	;# 
   113  009A                     	;# 
   114  009B                     	;# 
   115  009C                     	;# 
   116  009D                     	;# 
   117  009E                     	;# 
   118  009F                     	;# 
   119  0105                     	;# 
   120  0107                     	;# 
   121  0108                     	;# 
   122  0109                     	;# 
   123  010C                     	;# 
   124  010C                     	;# 
   125  010D                     	;# 
   126  010E                     	;# 
   127  010F                     	;# 
   128  0185                     	;# 
   129  0187                     	;# 
   130  0188                     	;# 
   131  0189                     	;# 
   132  018C                     	;# 
   133  018D                     	;# 
   134  0000                     	;# 
   135  0001                     	;# 
   136  0002                     	;# 
   137  0003                     	;# 
   138  0004                     	;# 
   139  0005                     	;# 
   140  0006                     	;# 
   141  0007                     	;# 
   142  0008                     	;# 
   143  0009                     	;# 
   144  000A                     	;# 
   145  000B                     	;# 
   146  000C                     	;# 
   147  000D                     	;# 
   148  000E                     	;# 
   149  000E                     	;# 
   150  000F                     	;# 
   151  0010                     	;# 
   152  0011                     	;# 
   153  0012                     	;# 
   154  0013                     	;# 
   155  0014                     	;# 
   156  0015                     	;# 
   157  0015                     	;# 
   158  0016                     	;# 
   159  0017                     	;# 
   160  0018                     	;# 
   161  0019                     	;# 
   162  001A                     	;# 
   163  001B                     	;# 
   164  001B                     	;# 
   165  001C                     	;# 
   166  001D                     	;# 
   167  001E                     	;# 
   168  001F                     	;# 
   169  0081                     	;# 
   170  0085                     	;# 
   171  0086                     	;# 
   172  0087                     	;# 
   173  0088                     	;# 
   174  0089                     	;# 
   175  008C                     	;# 
   176  008D                     	;# 
   177  008E                     	;# 
   178  008F                     	;# 
   179  0090                     	;# 
   180  0091                     	;# 
   181  0092                     	;# 
   182  0093                     	;# 
   183  0093                     	;# 
   184  0093                     	;# 
   185  0094                     	;# 
   186  0095                     	;# 
   187  0096                     	;# 
   188  0097                     	;# 
   189  0098                     	;# 
   190  0099                     	;# 
   191  009A                     	;# 
   192  009B                     	;# 
   193  009C                     	;# 
   194  009D                     	;# 
   195  009E                     	;# 
   196  009F                     	;# 
   197  0105                     	;# 
   198  0107                     	;# 
   199  0108                     	;# 
   200  0109                     	;# 
   201  010C                     	;# 
   202  010C                     	;# 
   203  010D                     	;# 
   204  010E                     	;# 
   205  010F                     	;# 
   206  0185                     	;# 
   207  0187                     	;# 
   208  0188                     	;# 
   209  0189                     	;# 
   210  018C                     	;# 
   211  018D                     	;# 
   212  0000                     	;# 
   213  0001                     	;# 
   214  0002                     	;# 
   215  0003                     	;# 
   216  0004                     	;# 
   217  0005                     	;# 
   218  0006                     	;# 
   219  0007                     	;# 
   220  0008                     	;# 
   221  0009                     	;# 
   222  000A                     	;# 
   223  000B                     	;# 
   224  000C                     	;# 
   225  000D                     	;# 
   226  000E                     	;# 
   227  000E                     	;# 
   228  000F                     	;# 
   229  0010                     	;# 
   230  0011                     	;# 
   231  0012                     	;# 
   232  0013                     	;# 
   233  0014                     	;# 
   234  0015                     	;# 
   235  0015                     	;# 
   236  0016                     	;# 
   237  0017                     	;# 
   238  0018                     	;# 
   239  0019                     	;# 
   240  001A                     	;# 
   241  001B                     	;# 
   242  001B                     	;# 
   243  001C                     	;# 
   244  001D                     	;# 
   245  001E                     	;# 
   246  001F                     	;# 
   247  0081                     	;# 
   248  0085                     	;# 
   249  0086                     	;# 
   250  0087                     	;# 
   251  0088                     	;# 
   252  0089                     	;# 
   253  008C                     	;# 
   254  008D                     	;# 
   255  008E                     	;# 
   256  008F                     	;# 
   257  0090                     	;# 
   258  0091                     	;# 
   259  0092                     	;# 
   260  0093                     	;# 
   261  0093                     	;# 
   262  0093                     	;# 
   263  0094                     	;# 
   264  0095                     	;# 
   265  0096                     	;# 
   266  0097                     	;# 
   267  0098                     	;# 
   268  0099                     	;# 
   269  009A                     	;# 
   270  009B                     	;# 
   271  009C                     	;# 
   272  009D                     	;# 
   273  009E                     	;# 
   274  009F                     	;# 
   275  0105                     	;# 
   276  0107                     	;# 
   277  0108                     	;# 
   278  0109                     	;# 
   279  010C                     	;# 
   280  010C                     	;# 
   281  010D                     	;# 
   282  010E                     	;# 
   283  010F                     	;# 
   284  0185                     	;# 
   285  0187                     	;# 
   286  0188                     	;# 
   287  0189                     	;# 
   288  018C                     	;# 
   289  018D                     	;# 
   290  0000                     	;# 
   291  0001                     	;# 
   292  0002                     	;# 
   293  0003                     	;# 
   294  0004                     	;# 
   295  0005                     	;# 
   296  0006                     	;# 
   297  0007                     	;# 
   298  0008                     	;# 
   299  0009                     	;# 
   300  000A                     	;# 
   301  000B                     	;# 
   302  000C                     	;# 
   303  000D                     	;# 
   304  000E                     	;# 
   305  000E                     	;# 
   306  000F                     	;# 
   307  0010                     	;# 
   308  0011                     	;# 
   309  0012                     	;# 
   310  0013                     	;# 
   311  0014                     	;# 
   312  0015                     	;# 
   313  0015                     	;# 
   314  0016                     	;# 
   315  0017                     	;# 
   316  0018                     	;# 
   317  0019                     	;# 
   318  001A                     	;# 
   319  001B                     	;# 
   320  001B                     	;# 
   321  001C                     	;# 
   322  001D                     	;# 
   323  001E                     	;# 
   324  001F                     	;# 
   325  0081                     	;# 
   326  0085                     	;# 
   327  0086                     	;# 
   328  0087                     	;# 
   329  0088                     	;# 
   330  0089                     	;# 
   331  008C                     	;# 
   332  008D                     	;# 
   333  008E                     	;# 
   334  008F                     	;# 
   335  0090                     	;# 
   336  0091                     	;# 
   337  0092                     	;# 
   338  0093                     	;# 
   339  0093                     	;# 
   340  0093                     	;# 
   341  0094                     	;# 
   342  0095                     	;# 
   343  0096                     	;# 
   344  0097                     	;# 
   345  0098                     	;# 
   346  0099                     	;# 
   347  009A                     	;# 
   348  009B                     	;# 
   349  009C                     	;# 
   350  009D                     	;# 
   351  009E                     	;# 
   352  009F                     	;# 
   353  0105                     	;# 
   354  0107                     	;# 
   355  0108                     	;# 
   356  0109                     	;# 
   357  010C                     	;# 
   358  010C                     	;# 
   359  010D                     	;# 
   360  010E                     	;# 
   361  010F                     	;# 
   362  0185                     	;# 
   363  0187                     	;# 
   364  0188                     	;# 
   365  0189                     	;# 
   366  018C                     	;# 
   367  018D                     	;# 
   368  0000                     	;# 
   369  0001                     	;# 
   370  0002                     	;# 
   371  0003                     	;# 
   372  0004                     	;# 
   373  0005                     	;# 
   374  0006                     	;# 
   375  0007                     	;# 
   376  0008                     	;# 
   377  0009                     	;# 
   378  000A                     	;# 
   379  000B                     	;# 
   380  000C                     	;# 
   381  000D                     	;# 
   382  000E                     	;# 
   383  000E                     	;# 
   384  000F                     	;# 
   385  0010                     	;# 
   386  0011                     	;# 
   387  0012                     	;# 
   388  0013                     	;# 
   389  0014                     	;# 
   390  0015                     	;# 
   391  0015                     	;# 
   392  0016                     	;# 
   393  0017                     	;# 
   394  0018                     	;# 
   395  0019                     	;# 
   396  001A                     	;# 
   397  001B                     	;# 
   398  001B                     	;# 
   399  001C                     	;# 
   400  001D                     	;# 
   401  001E                     	;# 
   402  001F                     	;# 
   403  0081                     	;# 
   404  0085                     	;# 
   405  0086                     	;# 
   406  0087                     	;# 
   407  0088                     	;# 
   408  0089                     	;# 
   409  008C                     	;# 
   410  008D                     	;# 
   411  008E                     	;# 
   412  008F                     	;# 
   413  0090                     	;# 
   414  0091                     	;# 
   415  0092                     	;# 
   416  0093                     	;# 
   417  0093                     	;# 
   418  0093                     	;# 
   419  0094                     	;# 
   420  0095                     	;# 
   421  0096                     	;# 
   422  0097                     	;# 
   423  0098                     	;# 
   424  0099                     	;# 
   425  009A                     	;# 
   426  009B                     	;# 
   427  009C                     	;# 
   428  009D                     	;# 
   429  009E                     	;# 
   430  009F                     	;# 
   431  0105                     	;# 
   432  0107                     	;# 
   433  0108                     	;# 
   434  0109                     	;# 
   435  010C                     	;# 
   436  010C                     	;# 
   437  010D                     	;# 
   438  010E                     	;# 
   439  010F                     	;# 
   440  0185                     	;# 
   441  0187                     	;# 
   442  0188                     	;# 
   443  0189                     	;# 
   444  018C                     	;# 
   445  018D                     	;# 
   446  0006                     _PORTBbits	set	6
   447  0008                     _PORTDbits	set	8
   448  0005                     _PORTAbits	set	5
   449  0009                     _PORTEbits	set	9
   450  005F                     _GIE	set	95
   451  005D                     _TMR0IE	set	93
   452  0081                     _OPTION_REGbits	set	129
   453  0089                     _TRISEbits	set	137
   454  0085                     _TRISAbits	set	133
   455  0088                     _TRISDbits	set	136
   456  0086                     _TRISBbits	set	134
   457  040B                     _PSA	set	1035
   458  040D                     _T0CS	set	1037
   459  04B5                     _IOCB5	set	1205
   460  0189                     _ANSELH	set	393
   461  0188                     _ANSEL	set	392
   462                           
   463                           ; #config settings
   464  0000                     
   465                           	psect	cinit
   466  000F                     start_initialization:	
   467  000F                     __initialization:	
   468                           
   469                           ; Clear objects allocated to COMMON
   470  000F  01F0               	clrf	__pbssCOMMON& (0+127)
   471  0010  01F1               	clrf	(__pbssCOMMON+1)& (0+127)
   472  0011  01F2               	clrf	(__pbssCOMMON+2)& (0+127)
   473  0012  01F3               	clrf	(__pbssCOMMON+3)& (0+127)
   474  0013  01F4               	clrf	(__pbssCOMMON+4)& (0+127)
   475  0014  01F5               	clrf	(__pbssCOMMON+5)& (0+127)
   476  0015  01F6               	clrf	(__pbssCOMMON+6)& (0+127)
   477                           
   478                           ; Clear objects allocated to BANK0
   479  0016  1283               	bcf	3,5	;RP0=0, select bank0
   480  0017  1303               	bcf	3,6	;RP1=0, select bank0
   481  0018  01A0               	clrf	__pbssBANK0& (0+127)
   482  0019  01A1               	clrf	(__pbssBANK0+1)& (0+127)
   483  001A  01A2               	clrf	(__pbssBANK0+2)& (0+127)
   484  001B  01A3               	clrf	(__pbssBANK0+3)& (0+127)
   485  001C                     end_of_initialization:	
   486                           ;End of C runtime variable initialization code
   487                           
   488  001C                     __end_of__initialization:	
   489  001C  0183               	clrf	3
   490  001D  120A  118A  2929   	ljmp	_main	;jump to C main() function
   491                           
   492                           	psect	bssCOMMON
   493  0070                     __pbssCOMMON:	
   494  0070                     _tickCounter:	
   495  0070                     	ds	2
   496  0072                     mideColorAzul@t1:	
   497  0072                     	ds	2
   498  0074                     _estadoAgua:	
   499  0074                     	ds	1
   500  0075                     _estadoComida:	
   501  0075                     	ds	1
   502  0076                     _estadoPlato:	
   503  0076                     	ds	1
   504                           
   505                           	psect	bssBANK0
   506  0020                     __pbssBANK0:	
   507  0020                     _tHeartbeat:	
   508  0020                     	ds	2
   509  0022                     _tickColor:	
   510  0022                     	ds	2
   511                           
   512                           	psect	cstackCOMMON
   513  0077                     __pcstackCOMMON:	
   514  0077                     ?_appInit:	
   515  0077                     ?_platoMEFInit:	
   516                           ; 1 bytes @ 0x0
   517                           
   518  0077                     ?_comidaMEFInit:	
   519                           ; 1 bytes @ 0x0
   520                           
   521  0077                     ?_aguaMEFInit:	
   522                           ; 1 bytes @ 0x0
   523                           
   524  0077                     ?_platoMEF:	
   525                           ; 1 bytes @ 0x0
   526                           
   527  0077                     ?_comidaMEF:	
   528                           ; 1 bytes @ 0x0
   529                           
   530  0077                     ?_aguaMEF:	
   531                           ; 1 bytes @ 0x0
   532                           
   533  0077                     ?_servoHorario:	
   534                           ; 1 bytes @ 0x0
   535                           
   536  0077                     ?_main:	
   537                           ; 1 bytes @ 0x0
   538                           
   539  0077                     ?_isr:	
   540                           ; 1 bytes @ 0x0
   541                           
   542  0077                     ??_isr:	
   543                           ; 1 bytes @ 0x0
   544                           
   545                           
   546                           ; 1 bytes @ 0x0
   547  0077                     	ds	2
   548  0079                     ??_appInit:	
   549  0079                     ??_platoMEFInit:	
   550                           ; 1 bytes @ 0x2
   551                           
   552  0079                     ??_comidaMEFInit:	
   553                           ; 1 bytes @ 0x2
   554                           
   555  0079                     ??_aguaMEFInit:	
   556                           ; 1 bytes @ 0x2
   557                           
   558  0079                     ??_servoHorario:	
   559                           ; 1 bytes @ 0x2
   560                           
   561                           
   562                           ; 1 bytes @ 0x2
   563  0079                     	ds	1
   564  007A                     ??_comidaMEF:	
   565  007A                     ??_aguaMEF:	
   566                           ; 1 bytes @ 0x3
   567                           
   568                           
   569                           ; 1 bytes @ 0x3
   570  007A                     	ds	2
   571  007C                     ??_main:	
   572                           
   573                           	psect	cstackBANK0
   574  0024                     __pcstackBANK0:	
   575                           ; 1 bytes @ 0x5
   576                           
   577  0024                     ??_platoMEF:	
   578                           
   579                           ; 1 bytes @ 0x0
   580  0024                     	ds	2
   581                           
   582                           	psect	maintext
   583  0129                     __pmaintext:	
   584 ;;
   585 ;;Main: autosize = 0, tempsize = 0, incstack = 0, save=0
   586 ;;
   587 ;; *************** function _main *****************
   588 ;; Defined at:
   589 ;;		line 41 in file "main.c"
   590 ;; Parameters:    Size  Location     Type
   591 ;;		None
   592 ;; Auto vars:     Size  Location     Type
   593 ;;		None
   594 ;; Return value:  Size  Location     Type
   595 ;;                  1    wreg      void 
   596 ;; Registers used:
   597 ;;		wreg, fsr0l, fsr0h, status,2, status,0, pclath, cstack
   598 ;; Tracked objects:
   599 ;;		On entry : B00/0
   600 ;;		On exit  : 0/0
   601 ;;		Unchanged: 0/0
   602 ;; Data sizes:     COMMON   BANK0   BANK1   BANK3   BANK2
   603 ;;      Params:         0       0       0       0       0
   604 ;;      Locals:         0       0       0       0       0
   605 ;;      Temps:          0       0       0       0       0
   606 ;;      Totals:         0       0       0       0       0
   607 ;;Total ram usage:        0 bytes
   608 ;; Hardware stack levels required when called:    3
   609 ;; This function calls:
   610 ;;		_aguaMEF
   611 ;;		_aguaMEFInit
   612 ;;		_appInit
   613 ;;		_comidaMEF
   614 ;;		_comidaMEFInit
   615 ;;		_platoMEF
   616 ;;		_platoMEFInit
   617 ;; This function is called by:
   618 ;;		Startup code after reset
   619 ;; This function uses a non-reentrant model
   620 ;;
   621                           
   622                           
   623                           ;psect for function _main
   624  0129                     _main:	
   625  0129                     l1137:	
   626                           ;incstack = 0
   627                           ; Regs used in _main: [wreg-fsr0h+status,2+status,0+pclath+cstack]
   628                           
   629                           
   630                           ;main.c: 42:     appInit();
   631  0129  120A  118A  2156  120A  118A  	fcall	_appInit
   632  012E                     l1139:	
   633                           
   634                           ;main.c: 43:     PORTEbits.RE1 = 0;
   635  012E  1283               	bcf	3,5	;RP0=0, select bank0
   636  012F  1303               	bcf	3,6	;RP1=0, select bank0
   637  0130  1089               	bcf	9,1	;volatile
   638  0131                     l1141:	
   639                           
   640                           ;main.c: 44:     PORTAbits.RA5 = 0;
   641  0131  1285               	bcf	5,5	;volatile
   642  0132                     l1143:	
   643                           
   644                           ;main.c: 45:     PORTEbits.RE0 = 0;
   645  0132  1009               	bcf	9,0	;volatile
   646  0133                     l1145:	
   647                           
   648                           ;main.c: 46:     PORTEbits.RE2 = 0;
   649  0133  1109               	bcf	9,2	;volatile
   650  0134                     l1147:	
   651                           
   652                           ;main.c: 47:     platoMEFInit();
   653  0134  120A  118A  21A0  120A  118A  	fcall	_platoMEFInit
   654  0139                     l1149:	
   655                           
   656                           ;main.c: 48:     comidaMEFInit();
   657  0139  120A  118A  2196  120A  118A  	fcall	_comidaMEFInit
   658  013E                     l1151:	
   659                           
   660                           ;main.c: 49:     aguaMEFInit();
   661  013E  120A  118A  219B  120A  118A  	fcall	_aguaMEFInit
   662  0143                     l1153:	
   663                           
   664                           ;main.c: 51:         platoMEF();
   665  0143  120A  118A  20EA  120A  118A  	fcall	_platoMEF
   666  0148                     l1155:	
   667                           
   668                           ;main.c: 52:         comidaMEF();
   669  0148  120A  118A  2020  120A  118A  	fcall	_comidaMEF
   670  014D                     l1157:	
   671                           
   672                           ;main.c: 53:         aguaMEF();
   673  014D  120A  118A  20A5  120A  118A  	fcall	_aguaMEF
   674  0152  2943               	goto	l1153
   675  0153  120A  118A  280C   	ljmp	start
   676  0156                     __end_of_main:	
   677                           
   678                           	psect	text1
   679  00EA                     __ptext1:	
   680 ;; *************** function _platoMEF *****************
   681 ;; Defined at:
   682 ;;		line 63 in file "main.c"
   683 ;; Parameters:    Size  Location     Type
   684 ;;		None
   685 ;; Auto vars:     Size  Location     Type
   686 ;;		None
   687 ;; Return value:  Size  Location     Type
   688 ;;                  1    wreg      void 
   689 ;; Registers used:
   690 ;;		wreg, fsr0l, fsr0h, status,2, status,0, pclath, cstack
   691 ;; Tracked objects:
   692 ;;		On entry : 0/0
   693 ;;		On exit  : 0/0
   694 ;;		Unchanged: 0/0
   695 ;; Data sizes:     COMMON   BANK0   BANK1   BANK3   BANK2
   696 ;;      Params:         0       0       0       0       0
   697 ;;      Locals:         0       0       0       0       0
   698 ;;      Temps:          0       2       0       0       0
   699 ;;      Totals:         0       2       0       0       0
   700 ;;Total ram usage:        2 bytes
   701 ;; Hardware stack levels used:    1
   702 ;; Hardware stack levels required when called:    2
   703 ;; This function calls:
   704 ;;		_platoMEFInit
   705 ;;		_servoHorario
   706 ;; This function is called by:
   707 ;;		_main
   708 ;; This function uses a non-reentrant model
   709 ;;
   710                           
   711                           
   712                           ;psect for function _platoMEF
   713  00EA                     _platoMEF:	
   714  00EA                     l1111:	
   715                           ;incstack = 0
   716                           ; Regs used in _platoMEF: [wreg-fsr0h+status,2+status,0+pclath+cstack]
   717                           
   718                           
   719                           ;main.c: 64:     switch (estadoPlato) {
   720  00EA  2913               	goto	l1131
   721  00EB                     l53:	
   722                           ;main.c: 65:         case E_REPOSO:
   723                           
   724                           
   725                           ;main.c: 66:             if (!PORTDbits.RD7) {
   726  00EB  1B88               	btfsc	8,7	;volatile
   727  00EC  28EE               	goto	u231
   728  00ED  28EF               	goto	u230
   729  00EE                     u231:	
   730  00EE  2928               	goto	l62
   731  00EF                     u230:	
   732  00EF                     l1113:	
   733                           
   734                           ;main.c: 67:                 estadoPlato = E_DETECTA;
   735  00EF  01F6               	clrf	_estadoPlato
   736  00F0  0AF6               	incf	_estadoPlato,f
   737                           
   738                           ;main.c: 68:                 PORTBbits.RB2 = 1;
   739  00F1  1506               	bsf	6,2	;volatile
   740  00F2  2928               	goto	l62
   741  00F3                     l56:	
   742                           ;main.c: 71:         case E_DETECTA:
   743                           
   744                           
   745                           ;main.c: 72:             if (!PORTAbits.RA4) {
   746  00F3  1A05               	btfsc	5,4	;volatile
   747  00F4  28F6               	goto	u241
   748  00F5  28F7               	goto	u240
   749  00F6                     u241:	
   750  00F6  28FA               	goto	l1119
   751  00F7                     u240:	
   752  00F7                     l1115:	
   753                           
   754                           ;main.c: 73:                 estadoPlato = E_REPOSO;
   755  00F7  01F6               	clrf	_estadoPlato
   756  00F8                     l1117:	
   757                           
   758                           ;main.c: 74:                 PORTBbits.RB2 = 0;
   759  00F8  1106               	bcf	6,2	;volatile
   760                           
   761                           ;main.c: 75:             } else {
   762  00F9  2928               	goto	l62
   763  00FA                     l1119:	
   764                           
   765                           ;main.c: 76:                 estadoPlato = E_ACTIVO;
   766  00FA  3002               	movlw	2
   767  00FB  00A4               	movwf	??_platoMEF
   768  00FC  0824               	movf	??_platoMEF,w
   769  00FD  00F6               	movwf	_estadoPlato
   770  00FE                     l1121:	
   771                           
   772                           ;main.c: 77:                 PORTBbits.RB2 = 0;
   773  00FE  1106               	bcf	6,2	;volatile
   774  00FF  2928               	goto	l62
   775  0100                     l1123:	
   776                           
   777                           ;main.c: 81:             servoHorario();
   778  0100  120A  118A  2177  120A  118A  	fcall	_servoHorario
   779  0105                     l1125:	
   780                           
   781                           ;main.c: 82:             if (!PORTAbits.RA4) {
   782  0105  1283               	bcf	3,5	;RP0=0, select bank0
   783  0106  1303               	bcf	3,6	;RP1=0, select bank0
   784  0107  1A05               	btfsc	5,4	;volatile
   785  0108  290A               	goto	u251
   786  0109  290B               	goto	u250
   787  010A                     u251:	
   788  010A  2928               	goto	l62
   789  010B                     u250:	
   790  010B                     l1127:	
   791                           
   792                           ;main.c: 83:                 estadoPlato = E_REPOSO;
   793  010B  01F6               	clrf	_estadoPlato
   794  010C  2928               	goto	l62
   795  010D                     l1129:	
   796                           
   797                           ;main.c: 88:             platoMEFInit();
   798  010D  120A  118A  21A0  120A  118A  	fcall	_platoMEFInit
   799                           
   800                           ;main.c: 89:     }
   801  0112  2928               	goto	l62
   802  0113                     l1131:	
   803  0113  0876               	movf	_estadoPlato,w
   804  0114  1283               	bcf	3,5	;RP0=0, select bank0
   805  0115  1303               	bcf	3,6	;RP1=0, select bank0
   806  0116  00A4               	movwf	??_platoMEF
   807  0117  01A5               	clrf	??_platoMEF+1
   808                           
   809                           ; Switch on 2 bytes has been partitioned into a top level switch of size 1, and 1 sub-sw
      +                          itches
   810                           ; Switch size 1, requested type "simple"
   811                           ; Number of cases is 1, Range of values is 0 to 0
   812                           ; switch strategies available:
   813                           ; Name         Instructions Cycles
   814                           ; simple_byte            4     3 (average)
   815                           ; direct_byte           11     8 (fixed)
   816                           ; jumptable            260     6 (fixed)
   817                           ;	Chosen strategy is simple_byte
   818  0118  0825               	movf	??_platoMEF+1,w
   819  0119  3A00               	xorlw	0	; case 0
   820  011A  1903               	skipnz
   821  011B  291D               	goto	l1219
   822  011C  290D               	goto	l1129
   823  011D                     l1219:	
   824                           
   825                           ; Switch size 1, requested type "simple"
   826                           ; Number of cases is 3, Range of values is 0 to 2
   827                           ; switch strategies available:
   828                           ; Name         Instructions Cycles
   829                           ; simple_byte           10     6 (average)
   830                           ; direct_byte           17     8 (fixed)
   831                           ; jumptable            260     6 (fixed)
   832                           ;	Chosen strategy is simple_byte
   833  011D  0824               	movf	??_platoMEF,w
   834  011E  3A00               	xorlw	0	; case 0
   835  011F  1903               	skipnz
   836  0120  28EB               	goto	l53
   837  0121  3A01               	xorlw	1	; case 1
   838  0122  1903               	skipnz
   839  0123  28F3               	goto	l56
   840  0124  3A03               	xorlw	3	; case 2
   841  0125  1903               	skipnz
   842  0126  2900               	goto	l1123
   843  0127  290D               	goto	l1129
   844  0128                     l62:	
   845  0128  0008               	return
   846  0129                     __end_of_platoMEF:	
   847                           
   848                           	psect	text2
   849  0177                     __ptext2:	
   850 ;; *************** function _servoHorario *****************
   851 ;; Defined at:
   852 ;;		line 188 in file "main.c"
   853 ;; Parameters:    Size  Location     Type
   854 ;;		None
   855 ;; Auto vars:     Size  Location     Type
   856 ;;		None
   857 ;; Return value:  Size  Location     Type
   858 ;;                  1    wreg      void 
   859 ;; Registers used:
   860 ;;		wreg
   861 ;; Tracked objects:
   862 ;;		On entry : 0/0
   863 ;;		On exit  : 0/0
   864 ;;		Unchanged: 0/0
   865 ;; Data sizes:     COMMON   BANK0   BANK1   BANK3   BANK2
   866 ;;      Params:         0       0       0       0       0
   867 ;;      Locals:         0       0       0       0       0
   868 ;;      Temps:          2       0       0       0       0
   869 ;;      Totals:         2       0       0       0       0
   870 ;;Total ram usage:        2 bytes
   871 ;; Hardware stack levels used:    1
   872 ;; Hardware stack levels required when called:    1
   873 ;; This function calls:
   874 ;;		Nothing
   875 ;; This function is called by:
   876 ;;		_platoMEF
   877 ;; This function uses a non-reentrant model
   878 ;;
   879                           
   880                           
   881                           ;psect for function _servoHorario
   882  0177                     _servoHorario:	
   883  0177                     l757:	
   884                           ;incstack = 0
   885                           ; Regs used in _servoHorario: [wreg]
   886                           
   887                           
   888                           ;main.c: 190:     PORTBbits.RB1 = 1;
   889  0177  1283               	bcf	3,5	;RP0=0, select bank0
   890  0178  1303               	bcf	3,6	;RP1=0, select bank0
   891  0179  1486               	bsf	6,1	;volatile
   892  017A                     l759:	
   893                           
   894                           ;main.c: 191:     _delay((unsigned long)((1390)*(4000000L/4000000.0)));
   895  017A  30C6               	movlw	198
   896  017B  00F9               	movwf	??_servoHorario
   897  017C                     u267:	
   898  017C  297D               	nop2
   899  017D  297E               	nop2
   900  017E  0BF9               	decfsz	??_servoHorario,f
   901  017F  297C               	goto	u267
   902  0180  2981               	nop2
   903  0181  0000               	nop
   904  0182                     l761:	
   905                           
   906                           ;main.c: 192:     PORTBbits.RB1 = 0;
   907  0182  1283               	bcf	3,5	;RP0=0, select bank0
   908  0183  1303               	bcf	3,6	;RP1=0, select bank0
   909  0184  1086               	bcf	6,1	;volatile
   910                           
   911                           ;main.c: 193:     _delay((unsigned long)((10)*(4000000L/4000.0)));
   912  0185  300D               	movlw	13
   913  0186  00FA               	movwf	??_servoHorario+1
   914  0187  30FB               	movlw	251
   915  0188  00F9               	movwf	??_servoHorario
   916  0189                     u277:	
   917  0189  0BF9               	decfsz	??_servoHorario,f
   918  018A  2989               	goto	u277
   919  018B  0BFA               	decfsz	??_servoHorario+1,f
   920  018C  2989               	goto	u277
   921  018D  298E               	nop2
   922  018E                     l107:	
   923  018E  0008               	return
   924  018F                     __end_of_servoHorario:	
   925                           
   926                           	psect	text3
   927  01A0                     __ptext3:	
   928 ;; *************** function _platoMEFInit *****************
   929 ;; Defined at:
   930 ;;		line 59 in file "main.c"
   931 ;; Parameters:    Size  Location     Type
   932 ;;		None
   933 ;; Auto vars:     Size  Location     Type
   934 ;;		None
   935 ;; Return value:  Size  Location     Type
   936 ;;                  1    wreg      void 
   937 ;; Registers used:
   938 ;;		status,2
   939 ;; Tracked objects:
   940 ;;		On entry : 0/0
   941 ;;		On exit  : 0/0
   942 ;;		Unchanged: 0/0
   943 ;; Data sizes:     COMMON   BANK0   BANK1   BANK3   BANK2
   944 ;;      Params:         0       0       0       0       0
   945 ;;      Locals:         0       0       0       0       0
   946 ;;      Temps:          0       0       0       0       0
   947 ;;      Totals:         0       0       0       0       0
   948 ;;Total ram usage:        0 bytes
   949 ;; Hardware stack levels used:    1
   950 ;; Hardware stack levels required when called:    1
   951 ;; This function calls:
   952 ;;		Nothing
   953 ;; This function is called by:
   954 ;;		_main
   955 ;;		_platoMEF
   956 ;; This function uses a non-reentrant model
   957 ;;
   958                           
   959                           
   960                           ;psect for function _platoMEFInit
   961  01A0                     _platoMEFInit:	
   962  01A0                     l751:	
   963                           ;incstack = 0
   964                           ; Regs used in _platoMEFInit: [status,2]
   965                           
   966                           
   967                           ;main.c: 60:     estadoPlato = E_REPOSO;
   968  01A0  01F6               	clrf	_estadoPlato
   969  01A1                     l49:	
   970  01A1  0008               	return
   971  01A2                     __end_of_platoMEFInit:	
   972                           
   973                           	psect	text4
   974  0020                     __ptext4:	
   975 ;; *************** function _comidaMEF *****************
   976 ;; Defined at:
   977 ;;		line 96 in file "main.c"
   978 ;; Parameters:    Size  Location     Type
   979 ;;		None
   980 ;; Auto vars:     Size  Location     Type
   981 ;;		None
   982 ;; Return value:  Size  Location     Type
   983 ;;                  1    wreg      void 
   984 ;; Registers used:
   985 ;;		wreg, fsr0l, fsr0h, status,2, status,0, pclath, cstack
   986 ;; Tracked objects:
   987 ;;		On entry : 0/0
   988 ;;		On exit  : 0/0
   989 ;;		Unchanged: 0/0
   990 ;; Data sizes:     COMMON   BANK0   BANK1   BANK3   BANK2
   991 ;;      Params:         0       0       0       0       0
   992 ;;      Locals:         0       0       0       0       0
   993 ;;      Temps:          2       0       0       0       0
   994 ;;      Totals:         2       0       0       0       0
   995 ;;Total ram usage:        2 bytes
   996 ;; Hardware stack levels used:    1
   997 ;; Hardware stack levels required when called:    2
   998 ;; This function calls:
   999 ;;		_comidaMEFInit
  1000 ;; This function is called by:
  1001 ;;		_main
  1002 ;; This function uses a non-reentrant model
  1003 ;;
  1004                           
  1005                           
  1006                           ;psect for function _comidaMEF
  1007  0020                     _comidaMEF:	
  1008  0020                     l827:	
  1009                           ;incstack = 0
  1010                           ; Regs used in _comidaMEF: [wreg-fsr0h+status,2+status,0+pclath+cstack]
  1011                           
  1012                           
  1013                           ;main.c: 97:     switch (estadoComida) {
  1014  0020  288E               	goto	l879
  1015  0021                     l69:	
  1016                           ;main.c: 98:         case E_COMIDA_IN:
  1017                           
  1018                           
  1019                           ;main.c: 99:             if (!PORTAbits.RA2 && !PORTAbits.RA3) {
  1020  0021  1283               	bcf	3,5	;RP0=0, select bank0
  1021  0022  1303               	bcf	3,6	;RP1=0, select bank0
  1022  0023  1905               	btfsc	5,2	;volatile
  1023  0024  2826               	goto	u41
  1024  0025  2827               	goto	u40
  1025  0026                     u41:	
  1026  0026  2830               	goto	l835
  1027  0027                     u40:	
  1028  0027                     l829:	
  1029  0027  1985               	btfsc	5,3	;volatile
  1030  0028  282A               	goto	u51
  1031  0029  282B               	goto	u50
  1032  002A                     u51:	
  1033  002A  2830               	goto	l835
  1034  002B                     u50:	
  1035  002B                     l831:	
  1036                           
  1037                           ;main.c: 100:                 estadoComida = E_LLENO;
  1038  002B  3005               	movlw	5
  1039  002C  00FA               	movwf	??_comidaMEF
  1040  002D  087A               	movf	??_comidaMEF,w
  1041  002E  00F5               	movwf	_estadoComida
  1042  002F                     l833:	
  1043                           
  1044                           ;main.c: 101:                 PORTEbits.RE2 = 0;
  1045  002F  1109               	bcf	9,2	;volatile
  1046  0030                     l835:	
  1047                           
  1048                           ;main.c: 103:             if (!PORTAbits.RA2 && PORTAbits.RA3) {
  1049  0030  1905               	btfsc	5,2	;volatile
  1050  0031  2833               	goto	u61
  1051  0032  2834               	goto	u60
  1052  0033                     u61:	
  1053  0033  283D               	goto	l843
  1054  0034                     u60:	
  1055  0034                     l837:	
  1056  0034  1D85               	btfss	5,3	;volatile
  1057  0035  2837               	goto	u71
  1058  0036  2838               	goto	u70
  1059  0037                     u71:	
  1060  0037  283D               	goto	l843
  1061  0038                     u70:	
  1062  0038                     l839:	
  1063                           
  1064                           ;main.c: 104:                 estadoComida = E_MEDIO;
  1065  0038  3004               	movlw	4
  1066  0039  00FA               	movwf	??_comidaMEF
  1067  003A  087A               	movf	??_comidaMEF,w
  1068  003B  00F5               	movwf	_estadoComida
  1069  003C                     l841:	
  1070                           
  1071                           ;main.c: 105:                 PORTEbits.RE2 = 0;
  1072  003C  1109               	bcf	9,2	;volatile
  1073  003D                     l843:	
  1074                           
  1075                           ;main.c: 107:             if (PORTAbits.RA2 && PORTAbits.RA3) {
  1076  003D  1D05               	btfss	5,2	;volatile
  1077  003E  2840               	goto	u81
  1078  003F  2841               	goto	u80
  1079  0040                     u81:	
  1080  0040  28A4               	goto	l82
  1081  0041                     u80:	
  1082  0041                     l845:	
  1083  0041  1D85               	btfss	5,3	;volatile
  1084  0042  2844               	goto	u91
  1085  0043  2845               	goto	u90
  1086  0044                     u91:	
  1087  0044  28A4               	goto	l82
  1088  0045                     u90:	
  1089  0045                     l847:	
  1090                           
  1091                           ;main.c: 108:                 estadoComida = E_VACIO;
  1092  0045  3003               	movlw	3
  1093  0046  00FA               	movwf	??_comidaMEF
  1094  0047  087A               	movf	??_comidaMEF,w
  1095  0048  00F5               	movwf	_estadoComida
  1096  0049                     l849:	
  1097                           
  1098                           ;main.c: 109:                 PORTEbits.RE2 = 1;
  1099  0049  1509               	bsf	9,2	;volatile
  1100  004A  28A4               	goto	l82
  1101  004B                     l74:	
  1102                           ;main.c: 112:         case E_LLENO:
  1103                           
  1104                           
  1105                           ;main.c: 113:             if (!PORTAbits.RA2 && PORTAbits.RA3) {
  1106  004B  1283               	bcf	3,5	;RP0=0, select bank0
  1107  004C  1303               	bcf	3,6	;RP1=0, select bank0
  1108  004D  1905               	btfsc	5,2	;volatile
  1109  004E  2850               	goto	u101
  1110  004F  2851               	goto	u100
  1111  0050                     u101:	
  1112  0050  28A4               	goto	l82
  1113  0051                     u100:	
  1114  0051                     l851:	
  1115  0051  1D85               	btfss	5,3	;volatile
  1116  0052  2854               	goto	u111
  1117  0053  2855               	goto	u110
  1118  0054                     u111:	
  1119  0054  28A4               	goto	l82
  1120  0055                     u110:	
  1121  0055                     l853:	
  1122                           
  1123                           ;main.c: 114:                 estadoComida = E_MEDIO;
  1124  0055  3004               	movlw	4
  1125  0056  00FA               	movwf	??_comidaMEF
  1126  0057  087A               	movf	??_comidaMEF,w
  1127  0058  00F5               	movwf	_estadoComida
  1128  0059                     l855:	
  1129                           
  1130                           ;main.c: 115:                 PORTEbits.RE2 = 0;
  1131  0059  1109               	bcf	9,2	;volatile
  1132  005A  28A4               	goto	l82
  1133  005B                     l76:	
  1134                           ;main.c: 118:         case E_MEDIO:
  1135                           
  1136                           
  1137                           ;main.c: 119:             if (!PORTAbits.RA2 && !PORTAbits.RA3) {
  1138  005B  1283               	bcf	3,5	;RP0=0, select bank0
  1139  005C  1303               	bcf	3,6	;RP1=0, select bank0
  1140  005D  1905               	btfsc	5,2	;volatile
  1141  005E  2860               	goto	u121
  1142  005F  2861               	goto	u120
  1143  0060                     u121:	
  1144  0060  286A               	goto	l863
  1145  0061                     u120:	
  1146  0061                     l857:	
  1147  0061  1985               	btfsc	5,3	;volatile
  1148  0062  2864               	goto	u131
  1149  0063  2865               	goto	u130
  1150  0064                     u131:	
  1151  0064  286A               	goto	l863
  1152  0065                     u130:	
  1153  0065                     l859:	
  1154                           
  1155                           ;main.c: 120:                 estadoComida = E_LLENO;
  1156  0065  3005               	movlw	5
  1157  0066  00FA               	movwf	??_comidaMEF
  1158  0067  087A               	movf	??_comidaMEF,w
  1159  0068  00F5               	movwf	_estadoComida
  1160  0069                     l861:	
  1161                           
  1162                           ;main.c: 121:                 PORTEbits.RE2 = 0;
  1163  0069  1109               	bcf	9,2	;volatile
  1164  006A                     l863:	
  1165                           
  1166                           ;main.c: 124:             if (PORTAbits.RA2 && PORTAbits.RA3) {
  1167  006A  1D05               	btfss	5,2	;volatile
  1168  006B  286D               	goto	u141
  1169  006C  286E               	goto	u140
  1170  006D                     u141:	
  1171  006D  28A4               	goto	l82
  1172  006E                     u140:	
  1173  006E                     l865:	
  1174  006E  1D85               	btfss	5,3	;volatile
  1175  006F  2871               	goto	u151
  1176  0070  2872               	goto	u150
  1177  0071                     u151:	
  1178  0071  28A4               	goto	l82
  1179  0072                     u150:	
  1180  0072                     l867:	
  1181                           
  1182                           ;main.c: 125:                 estadoComida = E_VACIO;
  1183  0072  3003               	movlw	3
  1184  0073  00FA               	movwf	??_comidaMEF
  1185  0074  087A               	movf	??_comidaMEF,w
  1186  0075  00F5               	movwf	_estadoComida
  1187  0076                     l869:	
  1188                           
  1189                           ;main.c: 126:                 PORTEbits.RE2 = 1;
  1190  0076  1509               	bsf	9,2	;volatile
  1191  0077  28A4               	goto	l82
  1192  0078                     l79:	
  1193                           ;main.c: 129:         case E_VACIO:
  1194                           
  1195                           
  1196                           ;main.c: 130:             if (!PORTAbits.RA2 && PORTAbits.RA3) {
  1197  0078  1283               	bcf	3,5	;RP0=0, select bank0
  1198  0079  1303               	bcf	3,6	;RP1=0, select bank0
  1199  007A  1905               	btfsc	5,2	;volatile
  1200  007B  287D               	goto	u161
  1201  007C  287E               	goto	u160
  1202  007D                     u161:	
  1203  007D  28A4               	goto	l82
  1204  007E                     u160:	
  1205  007E                     l871:	
  1206  007E  1D85               	btfss	5,3	;volatile
  1207  007F  2881               	goto	u171
  1208  0080  2882               	goto	u170
  1209  0081                     u171:	
  1210  0081  28A4               	goto	l82
  1211  0082                     u170:	
  1212  0082                     l873:	
  1213                           
  1214                           ;main.c: 131:                 estadoComida = E_MEDIO;
  1215  0082  3004               	movlw	4
  1216  0083  00FA               	movwf	??_comidaMEF
  1217  0084  087A               	movf	??_comidaMEF,w
  1218  0085  00F5               	movwf	_estadoComida
  1219  0086                     l875:	
  1220                           
  1221                           ;main.c: 132:                 PORTEbits.RE2 = 0;
  1222  0086  1109               	bcf	9,2	;volatile
  1223  0087  28A4               	goto	l82
  1224  0088                     l877:	
  1225                           
  1226                           ;main.c: 137:             comidaMEFInit();
  1227  0088  120A  118A  2196  120A  118A  	fcall	_comidaMEFInit
  1228                           
  1229                           ;main.c: 138:     }
  1230  008D  28A4               	goto	l82
  1231  008E                     l879:	
  1232  008E  0875               	movf	_estadoComida,w
  1233  008F  00FA               	movwf	??_comidaMEF
  1234  0090  01FB               	clrf	??_comidaMEF+1
  1235                           
  1236                           ; Switch on 2 bytes has been partitioned into a top level switch of size 1, and 1 sub-sw
      +                          itches
  1237                           ; Switch size 1, requested type "simple"
  1238                           ; Number of cases is 1, Range of values is 0 to 0
  1239                           ; switch strategies available:
  1240                           ; Name         Instructions Cycles
  1241                           ; simple_byte            4     3 (average)
  1242                           ; direct_byte           11     8 (fixed)
  1243                           ; jumptable            260     6 (fixed)
  1244                           ;	Chosen strategy is simple_byte
  1245  0091  087B               	movf	??_comidaMEF+1,w
  1246  0092  3A00               	xorlw	0	; case 0
  1247  0093  1903               	skipnz
  1248  0094  2896               	goto	l1221
  1249  0095  2888               	goto	l877
  1250  0096                     l1221:	
  1251                           
  1252                           ; Switch size 1, requested type "simple"
  1253                           ; Number of cases is 4, Range of values is 3 to 6
  1254                           ; switch strategies available:
  1255                           ; Name         Instructions Cycles
  1256                           ; simple_byte           13     7 (average)
  1257                           ; direct_byte           23    11 (fixed)
  1258                           ; jumptable            263     9 (fixed)
  1259                           ;	Chosen strategy is simple_byte
  1260  0096  087A               	movf	??_comidaMEF,w
  1261  0097  3A03               	xorlw	3	; case 3
  1262  0098  1903               	skipnz
  1263  0099  2878               	goto	l79
  1264  009A  3A07               	xorlw	7	; case 4
  1265  009B  1903               	skipnz
  1266  009C  285B               	goto	l76
  1267  009D  3A01               	xorlw	1	; case 5
  1268  009E  1903               	skipnz
  1269  009F  284B               	goto	l74
  1270  00A0  3A03               	xorlw	3	; case 6
  1271  00A1  1903               	skipnz
  1272  00A2  2821               	goto	l69
  1273  00A3  2888               	goto	l877
  1274  00A4                     l82:	
  1275  00A4  0008               	return
  1276  00A5                     __end_of_comidaMEF:	
  1277                           
  1278                           	psect	text5
  1279  0196                     __ptext5:	
  1280 ;; *************** function _comidaMEFInit *****************
  1281 ;; Defined at:
  1282 ;;		line 92 in file "main.c"
  1283 ;; Parameters:    Size  Location     Type
  1284 ;;		None
  1285 ;; Auto vars:     Size  Location     Type
  1286 ;;		None
  1287 ;; Return value:  Size  Location     Type
  1288 ;;                  1    wreg      void 
  1289 ;; Registers used:
  1290 ;;		wreg
  1291 ;; Tracked objects:
  1292 ;;		On entry : 0/0
  1293 ;;		On exit  : 0/0
  1294 ;;		Unchanged: 0/0
  1295 ;; Data sizes:     COMMON   BANK0   BANK1   BANK3   BANK2
  1296 ;;      Params:         0       0       0       0       0
  1297 ;;      Locals:         0       0       0       0       0
  1298 ;;      Temps:          1       0       0       0       0
  1299 ;;      Totals:         1       0       0       0       0
  1300 ;;Total ram usage:        1 bytes
  1301 ;; Hardware stack levels used:    1
  1302 ;; Hardware stack levels required when called:    1
  1303 ;; This function calls:
  1304 ;;		Nothing
  1305 ;; This function is called by:
  1306 ;;		_main
  1307 ;;		_comidaMEF
  1308 ;; This function uses a non-reentrant model
  1309 ;;
  1310                           
  1311                           
  1312                           ;psect for function _comidaMEFInit
  1313  0196                     _comidaMEFInit:	
  1314  0196                     l753:	
  1315                           ;incstack = 0
  1316                           ; Regs used in _comidaMEFInit: [wreg]
  1317                           
  1318                           
  1319                           ;main.c: 93:     estadoComida = E_COMIDA_IN;
  1320  0196  3006               	movlw	6
  1321  0197  00F9               	movwf	??_comidaMEFInit
  1322  0198  0879               	movf	??_comidaMEFInit,w
  1323  0199  00F5               	movwf	_estadoComida
  1324  019A                     l65:	
  1325  019A  0008               	return
  1326  019B                     __end_of_comidaMEFInit:	
  1327                           
  1328                           	psect	text6
  1329  0156                     __ptext6:	
  1330 ;; *************** function _appInit *****************
  1331 ;; Defined at:
  1332 ;;		line 14 in file "user.c"
  1333 ;; Parameters:    Size  Location     Type
  1334 ;;		None
  1335 ;; Auto vars:     Size  Location     Type
  1336 ;;		None
  1337 ;; Return value:  Size  Location     Type
  1338 ;;                  1    wreg      void 
  1339 ;; Registers used:
  1340 ;;		wreg, status,2
  1341 ;; Tracked objects:
  1342 ;;		On entry : 0/0
  1343 ;;		On exit  : 0/0
  1344 ;;		Unchanged: 0/0
  1345 ;; Data sizes:     COMMON   BANK0   BANK1   BANK3   BANK2
  1346 ;;      Params:         0       0       0       0       0
  1347 ;;      Locals:         0       0       0       0       0
  1348 ;;      Temps:          2       0       0       0       0
  1349 ;;      Totals:         2       0       0       0       0
  1350 ;;Total ram usage:        2 bytes
  1351 ;; Hardware stack levels used:    1
  1352 ;; Hardware stack levels required when called:    1
  1353 ;; This function calls:
  1354 ;;		Nothing
  1355 ;; This function is called by:
  1356 ;;		_main
  1357 ;; This function uses a non-reentrant model
  1358 ;;
  1359                           
  1360                           
  1361                           ;psect for function _appInit
  1362  0156                     _appInit:	
  1363  0156                     l763:	
  1364                           ;incstack = 0
  1365                           ; Regs used in _appInit: [wreg+status,2]
  1366                           
  1367                           
  1368                           ;user.c: 16:     ANSEL = 0;
  1369  0156  1683               	bsf	3,5	;RP0=1, select bank3
  1370  0157  1703               	bsf	3,6	;RP1=1, select bank3
  1371  0158  0188               	clrf	8	;volatile
  1372                           
  1373                           ;user.c: 17:     ANSELH = 0;
  1374  0159  0189               	clrf	9	;volatile
  1375  015A                     l765:	
  1376                           
  1377                           ;user.c: 18:     IOCB5 = 1;
  1378  015A  1683               	bsf	3,5	;RP0=1, select bank1
  1379  015B  1303               	bcf	3,6	;RP1=0, select bank1
  1380  015C  1696               	bsf	22,5	;volatile
  1381  015D                     l767:	
  1382                           
  1383                           ;user.c: 20:     TRISBbits.TRISB0 = 1;
  1384  015D  1406               	bsf	6,0	;volatile
  1385  015E                     l769:	
  1386                           
  1387                           ;user.c: 21:     TRISDbits.TRISD7 = 1;
  1388  015E  1788               	bsf	8,7	;volatile
  1389  015F                     l771:	
  1390                           
  1391                           ;user.c: 22:     TRISDbits.TRISD6 = 1;
  1392  015F  1708               	bsf	8,6	;volatile
  1393  0160                     l773:	
  1394                           
  1395                           ;user.c: 23:     TRISDbits.TRISD5 = 1;
  1396  0160  1688               	bsf	8,5	;volatile
  1397  0161                     l775:	
  1398                           
  1399                           ;user.c: 25:     TRISAbits.TRISA3 = 1;
  1400  0161  1585               	bsf	5,3	;volatile
  1401  0162                     l777:	
  1402                           
  1403                           ;user.c: 26:     TRISAbits.TRISA2 = 1;
  1404  0162  1505               	bsf	5,2	;volatile
  1405  0163                     l779:	
  1406                           
  1407                           ;user.c: 27:     TRISAbits.TRISA4 = 1;
  1408  0163  1605               	bsf	5,4	;volatile
  1409  0164                     l781:	
  1410                           
  1411                           ;user.c: 29:     TRISDbits.TRISD2 = 1;
  1412  0164  1508               	bsf	8,2	;volatile
  1413  0165                     l783:	
  1414                           
  1415                           ;user.c: 31:     TRISBbits.TRISB2 = 1;
  1416  0165  1506               	bsf	6,2	;volatile
  1417  0166                     l785:	
  1418                           
  1419                           ;user.c: 33:     TRISEbits.TRISE2 = 0;
  1420  0166  1109               	bcf	9,2	;volatile
  1421  0167                     l787:	
  1422                           
  1423                           ;user.c: 34:     TRISEbits.TRISE1 = 0;
  1424  0167  1089               	bcf	9,1	;volatile
  1425  0168                     l789:	
  1426                           
  1427                           ;user.c: 35:     TRISEbits.TRISE0 = 0;
  1428  0168  1009               	bcf	9,0	;volatile
  1429  0169                     l791:	
  1430                           
  1431                           ;user.c: 36:     TRISAbits.TRISA5 = 0;
  1432  0169  1285               	bcf	5,5	;volatile
  1433  016A                     l793:	
  1434                           
  1435                           ;user.c: 38:     TRISBbits.TRISB1 = 0;
  1436  016A  1086               	bcf	6,1	;volatile
  1437  016B                     l795:	
  1438                           
  1439                           ;user.c: 40:     _delay((unsigned long)((100)*(4000000L/4000.0)));
  1440  016B  3082               	movlw	130
  1441  016C  00FA               	movwf	??_appInit+1
  1442  016D  30DD               	movlw	221
  1443  016E  00F9               	movwf	??_appInit
  1444  016F                     u287:	
  1445  016F  0BF9               	decfsz	??_appInit,f
  1446  0170  296F               	goto	u287
  1447  0171  0BFA               	decfsz	??_appInit+1,f
  1448  0172  296F               	goto	u287
  1449  0173  2974               	nop2
  1450  0174                     l797:	
  1451                           
  1452                           ;user.c: 43:     TMR0IE = 1;
  1453  0174  168B               	bsf	11,5	;volatile
  1454  0175                     l799:	
  1455                           
  1456                           ;user.c: 45:     GIE = 1;
  1457  0175  178B               	bsf	11,7	;volatile
  1458  0176                     l133:	
  1459  0176  0008               	return
  1460  0177                     __end_of_appInit:	
  1461                           
  1462                           	psect	text7
  1463  00A5                     __ptext7:	
  1464 ;; *************** function _aguaMEF *****************
  1465 ;; Defined at:
  1466 ;;		line 145 in file "main.c"
  1467 ;; Parameters:    Size  Location     Type
  1468 ;;		None
  1469 ;; Auto vars:     Size  Location     Type
  1470 ;;		None
  1471 ;; Return value:  Size  Location     Type
  1472 ;;                  1    wreg      void 
  1473 ;; Registers used:
  1474 ;;		wreg, fsr0l, fsr0h, status,2, status,0, pclath, cstack
  1475 ;; Tracked objects:
  1476 ;;		On entry : 0/0
  1477 ;;		On exit  : 0/0
  1478 ;;		Unchanged: 0/0
  1479 ;; Data sizes:     COMMON   BANK0   BANK1   BANK3   BANK2
  1480 ;;      Params:         0       0       0       0       0
  1481 ;;      Locals:         0       0       0       0       0
  1482 ;;      Temps:          2       0       0       0       0
  1483 ;;      Totals:         2       0       0       0       0
  1484 ;;Total ram usage:        2 bytes
  1485 ;; Hardware stack levels used:    1
  1486 ;; Hardware stack levels required when called:    2
  1487 ;; This function calls:
  1488 ;;		_aguaMEFInit
  1489 ;; This function is called by:
  1490 ;;		_main
  1491 ;; This function uses a non-reentrant model
  1492 ;;
  1493                           
  1494                           
  1495                           ;psect for function _aguaMEF
  1496  00A5                     _aguaMEF:	
  1497  00A5                     l885:	
  1498                           ;incstack = 0
  1499                           ; Regs used in _aguaMEF: [wreg-fsr0h+status,2+status,0+pclath+cstack]
  1500                           
  1501                           
  1502                           ;main.c: 146:     switch (estadoAgua) {
  1503  00A5  28D6               	goto	l905
  1504  00A6                     l89:	
  1505                           ;main.c: 147:         case E_AGUA_IN:
  1506                           
  1507                           
  1508                           ;main.c: 148:             if (PORTDbits.RD2) {
  1509  00A6  1283               	bcf	3,5	;RP0=0, select bank0
  1510  00A7  1303               	bcf	3,6	;RP1=0, select bank0
  1511  00A8  1D08               	btfss	8,2	;volatile
  1512  00A9  28AB               	goto	u181
  1513  00AA  28AC               	goto	u180
  1514  00AB                     u181:	
  1515  00AB  28B2               	goto	l891
  1516  00AC                     u180:	
  1517  00AC                     l887:	
  1518                           
  1519                           ;main.c: 149:                 estadoAgua = E_AGUA_LLENO;
  1520  00AC  3008               	movlw	8
  1521  00AD  00FA               	movwf	??_aguaMEF
  1522  00AE  087A               	movf	??_aguaMEF,w
  1523  00AF  00F4               	movwf	_estadoAgua
  1524  00B0                     l889:	
  1525                           
  1526                           ;main.c: 150:                 PORTAbits.RA5 = 0;
  1527  00B0  1285               	bcf	5,5	;volatile
  1528                           
  1529                           ;main.c: 151:             } else {
  1530  00B1  28E9               	goto	l98
  1531  00B2                     l891:	
  1532                           
  1533                           ;main.c: 152:                 estadoAgua = E_AGUA_VACIO;
  1534  00B2  3009               	movlw	9
  1535  00B3  00FA               	movwf	??_aguaMEF
  1536  00B4  087A               	movf	??_aguaMEF,w
  1537  00B5  00F4               	movwf	_estadoAgua
  1538  00B6                     l893:	
  1539                           
  1540                           ;main.c: 153:                 PORTAbits.RA5 = 1;
  1541  00B6  1685               	bsf	5,5	;volatile
  1542  00B7  28E9               	goto	l98
  1543  00B8                     l93:	
  1544                           ;main.c: 156:         case E_AGUA_LLENO:
  1545                           
  1546                           
  1547                           ;main.c: 157:             if (!PORTDbits.RD2) {
  1548  00B8  1283               	bcf	3,5	;RP0=0, select bank0
  1549  00B9  1303               	bcf	3,6	;RP1=0, select bank0
  1550  00BA  1908               	btfsc	8,2	;volatile
  1551  00BB  28BD               	goto	u191
  1552  00BC  28BE               	goto	u190
  1553  00BD                     u191:	
  1554  00BD  28E9               	goto	l98
  1555  00BE                     u190:	
  1556  00BE                     l895:	
  1557                           
  1558                           ;main.c: 158:                 estadoAgua = E_AGUA_VACIO;
  1559  00BE  3009               	movlw	9
  1560  00BF  00FA               	movwf	??_aguaMEF
  1561  00C0  087A               	movf	??_aguaMEF,w
  1562  00C1  00F4               	movwf	_estadoAgua
  1563  00C2                     l897:	
  1564                           
  1565                           ;main.c: 159:                 PORTAbits.RA5 = 1;
  1566  00C2  1685               	bsf	5,5	;volatile
  1567  00C3  28E9               	goto	l98
  1568  00C4                     l95:	
  1569                           ;main.c: 162:         case E_AGUA_VACIO:
  1570                           
  1571                           
  1572                           ;main.c: 163:             if (PORTDbits.RD2) {
  1573  00C4  1283               	bcf	3,5	;RP0=0, select bank0
  1574  00C5  1303               	bcf	3,6	;RP1=0, select bank0
  1575  00C6  1D08               	btfss	8,2	;volatile
  1576  00C7  28C9               	goto	u201
  1577  00C8  28CA               	goto	u200
  1578  00C9                     u201:	
  1579  00C9  28E9               	goto	l98
  1580  00CA                     u200:	
  1581  00CA                     l899:	
  1582                           
  1583                           ;main.c: 164:                 estadoAgua = E_AGUA_LLENO;
  1584  00CA  3008               	movlw	8
  1585  00CB  00FA               	movwf	??_aguaMEF
  1586  00CC  087A               	movf	??_aguaMEF,w
  1587  00CD  00F4               	movwf	_estadoAgua
  1588  00CE                     l901:	
  1589                           
  1590                           ;main.c: 165:                 PORTAbits.RA5 = 0;
  1591  00CE  1285               	bcf	5,5	;volatile
  1592  00CF  28E9               	goto	l98
  1593  00D0                     l903:	
  1594                           
  1595                           ;main.c: 169:             aguaMEFInit();
  1596  00D0  120A  118A  219B  120A  118A  	fcall	_aguaMEFInit
  1597                           
  1598                           ;main.c: 170:     }
  1599  00D5  28E9               	goto	l98
  1600  00D6                     l905:	
  1601  00D6  0874               	movf	_estadoAgua,w
  1602  00D7  00FA               	movwf	??_aguaMEF
  1603  00D8  01FB               	clrf	??_aguaMEF+1
  1604                           
  1605                           ; Switch on 2 bytes has been partitioned into a top level switch of size 1, and 1 sub-sw
      +                          itches
  1606                           ; Switch size 1, requested type "simple"
  1607                           ; Number of cases is 1, Range of values is 0 to 0
  1608                           ; switch strategies available:
  1609                           ; Name         Instructions Cycles
  1610                           ; simple_byte            4     3 (average)
  1611                           ; direct_byte           11     8 (fixed)
  1612                           ; jumptable            260     6 (fixed)
  1613                           ;	Chosen strategy is simple_byte
  1614  00D9  087B               	movf	??_aguaMEF+1,w
  1615  00DA  3A00               	xorlw	0	; case 0
  1616  00DB  1903               	skipnz
  1617  00DC  28DE               	goto	l1223
  1618  00DD  28D0               	goto	l903
  1619  00DE                     l1223:	
  1620                           
  1621                           ; Switch size 1, requested type "simple"
  1622                           ; Number of cases is 3, Range of values is 7 to 9
  1623                           ; switch strategies available:
  1624                           ; Name         Instructions Cycles
  1625                           ; simple_byte           10     6 (average)
  1626                           ; direct_byte           20    11 (fixed)
  1627                           ; jumptable            263     9 (fixed)
  1628                           ;	Chosen strategy is simple_byte
  1629  00DE  087A               	movf	??_aguaMEF,w
  1630  00DF  3A07               	xorlw	7	; case 7
  1631  00E0  1903               	skipnz
  1632  00E1  28A6               	goto	l89
  1633  00E2  3A0F               	xorlw	15	; case 8
  1634  00E3  1903               	skipnz
  1635  00E4  28B8               	goto	l93
  1636  00E5  3A01               	xorlw	1	; case 9
  1637  00E6  1903               	skipnz
  1638  00E7  28C4               	goto	l95
  1639  00E8  28D0               	goto	l903
  1640  00E9                     l98:	
  1641  00E9  0008               	return
  1642  00EA                     __end_of_aguaMEF:	
  1643                           
  1644                           	psect	text8
  1645  019B                     __ptext8:	
  1646 ;; *************** function _aguaMEFInit *****************
  1647 ;; Defined at:
  1648 ;;		line 141 in file "main.c"
  1649 ;; Parameters:    Size  Location     Type
  1650 ;;		None
  1651 ;; Auto vars:     Size  Location     Type
  1652 ;;		None
  1653 ;; Return value:  Size  Location     Type
  1654 ;;                  1    wreg      void 
  1655 ;; Registers used:
  1656 ;;		wreg
  1657 ;; Tracked objects:
  1658 ;;		On entry : 0/0
  1659 ;;		On exit  : 0/0
  1660 ;;		Unchanged: 0/0
  1661 ;; Data sizes:     COMMON   BANK0   BANK1   BANK3   BANK2
  1662 ;;      Params:         0       0       0       0       0
  1663 ;;      Locals:         0       0       0       0       0
  1664 ;;      Temps:          1       0       0       0       0
  1665 ;;      Totals:         1       0       0       0       0
  1666 ;;Total ram usage:        1 bytes
  1667 ;; Hardware stack levels used:    1
  1668 ;; Hardware stack levels required when called:    1
  1669 ;; This function calls:
  1670 ;;		Nothing
  1671 ;; This function is called by:
  1672 ;;		_main
  1673 ;;		_aguaMEF
  1674 ;; This function uses a non-reentrant model
  1675 ;;
  1676                           
  1677                           
  1678                           ;psect for function _aguaMEFInit
  1679  019B                     _aguaMEFInit:	
  1680  019B                     l755:	
  1681                           ;incstack = 0
  1682                           ; Regs used in _aguaMEFInit: [wreg]
  1683                           
  1684                           
  1685                           ;main.c: 142:     estadoAgua = E_AGUA_IN;
  1686  019B  3007               	movlw	7
  1687  019C  00F9               	movwf	??_aguaMEFInit
  1688  019D  0879               	movf	??_aguaMEFInit,w
  1689  019E  00F4               	movwf	_estadoAgua
  1690  019F                     l85:	
  1691  019F  0008               	return
  1692  01A0                     __end_of_aguaMEFInit:	
  1693                           
  1694                           	psect	text9
  1695  018F                     __ptext9:	
  1696 ;; *************** function _isr *****************
  1697 ;; Defined at:
  1698 ;;		line 30 in file "interrupts.c"
  1699 ;; Parameters:    Size  Location     Type
  1700 ;;		None
  1701 ;; Auto vars:     Size  Location     Type
  1702 ;;		None
  1703 ;; Return value:  Size  Location     Type
  1704 ;;                  1    wreg      void 
  1705 ;; Registers used:
  1706 ;;		None
  1707 ;; Tracked objects:
  1708 ;;		On entry : 0/0
  1709 ;;		On exit  : 0/0
  1710 ;;		Unchanged: 0/0
  1711 ;; Data sizes:     COMMON   BANK0   BANK1   BANK3   BANK2
  1712 ;;      Params:         0       0       0       0       0
  1713 ;;      Locals:         0       0       0       0       0
  1714 ;;      Temps:          2       0       0       0       0
  1715 ;;      Totals:         2       0       0       0       0
  1716 ;;Total ram usage:        2 bytes
  1717 ;; Hardware stack levels used:    1
  1718 ;; This function calls:
  1719 ;;		Nothing
  1720 ;; This function is called by:
  1721 ;;		Interrupt level 1
  1722 ;; This function uses a non-reentrant model
  1723 ;;
  1724                           
  1725                           
  1726                           ;psect for function _isr
  1727  018F                     _isr:	
  1728  018F                     i1l159:	
  1729  018F  0878               	movf	??_isr+1,w
  1730  0190  008A               	movwf	10
  1731  0191  0E77               	swapf	??_isr^(0+4294967168),w
  1732  0192  0083               	movwf	3
  1733  0193  0EFE               	swapf	btemp,f
  1734  0194  0E7E               	swapf	btemp,w
  1735  0195  0009               	retfie
  1736  0196                     __end_of_isr:	
  1737  007E                     btemp	set	126	;btemp
  1738  007E                     wtemp0	set	126
  1739                           
  1740                           	psect	intentry
  1741  0004                     __pintentry:	
  1742                           ;incstack = 0
  1743                           ; Regs used in _isr: []
  1744                           
  1745  0004                     interrupt_function:	
  1746  007E                     saved_w	set	btemp
  1747  0004  00FE               	movwf	btemp
  1748  0005  0E03               	swapf	3,w
  1749  0006  00F7               	movwf	??_isr
  1750  0007  080A               	movf	10,w
  1751  0008  00F8               	movwf	??_isr+1
  1752  0009  120A  118A  298F   	ljmp	_isr


Data Sizes:
    Strings     0
    Constant    0
    Data        0
    BSS         11
    Persistent  0
    Stack       0

Auto Spaces:
    Space          Size  Autos    Used
    COMMON           14      5      12
    BANK0            80      2       6
    BANK1            80      0       0
    BANK3            96      0       0
    BANK2            96      0       0

Pointer List with Targets:

    None.

Critical Paths under _main in COMMON

    _main->_aguaMEF
    _main->_comidaMEF
    _platoMEF->_servoHorario
    _comidaMEF->_comidaMEFInit
    _aguaMEF->_aguaMEFInit

Critical Paths under _isr in COMMON

    None.

Critical Paths under _main in BANK0

    _main->_platoMEF

Critical Paths under _isr in BANK0

    None.

Critical Paths under _main in BANK1

    None.

Critical Paths under _isr in BANK1

    None.

Critical Paths under _main in BANK3

    None.

Critical Paths under _isr in BANK3

    None.

Critical Paths under _main in BANK2

    None.

Critical Paths under _isr in BANK2

    None.

Call Graph Tables:

 ---------------------------------------------------------------------------------
 (Depth) Function   	        Calls       Base Space   Used Autos Params    Refs
 ---------------------------------------------------------------------------------
 (0) _main                                                 0     0      0       0
                            _aguaMEF
                        _aguaMEFInit
                            _appInit
                          _comidaMEF
                      _comidaMEFInit
                           _platoMEF
                       _platoMEFInit
 ---------------------------------------------------------------------------------
 (1) _platoMEF                                             2     2      0       0
                                              0 BANK0      2     2      0
                       _platoMEFInit
                       _servoHorario
 ---------------------------------------------------------------------------------
 (2) _servoHorario                                         2     2      0       0
                                              2 COMMON     2     2      0
 ---------------------------------------------------------------------------------
 (1) _platoMEFInit                                         0     0      0       0
 ---------------------------------------------------------------------------------
 (1) _comidaMEF                                            2     2      0       0
                                              3 COMMON     2     2      0
                      _comidaMEFInit
 ---------------------------------------------------------------------------------
 (1) _comidaMEFInit                                        1     1      0       0
                                              2 COMMON     1     1      0
 ---------------------------------------------------------------------------------
 (1) _appInit                                              2     2      0       0
                                              2 COMMON     2     2      0
 ---------------------------------------------------------------------------------
 (1) _aguaMEF                                              2     2      0       0
                                              3 COMMON     2     2      0
                        _aguaMEFInit
 ---------------------------------------------------------------------------------
 (1) _aguaMEFInit                                          1     1      0       0
                                              2 COMMON     1     1      0
 ---------------------------------------------------------------------------------
 Estimated maximum stack depth 2
 ---------------------------------------------------------------------------------
 (Depth) Function   	        Calls       Base Space   Used Autos Params    Refs
 ---------------------------------------------------------------------------------
 (3) _isr                                                  2     2      0       0
                                              0 COMMON     2     2      0
 ---------------------------------------------------------------------------------
 Estimated maximum stack depth 3
 ---------------------------------------------------------------------------------

 Call Graph Graphs:

 _main (ROOT)
   _aguaMEF
     _aguaMEFInit
   _aguaMEFInit
   _appInit
   _comidaMEF
     _comidaMEFInit
   _comidaMEFInit
   _platoMEF
     _platoMEFInit
     _servoHorario
   _platoMEFInit

 _isr (ROOT)

 Address spaces:
Name               Size   Autos  Total    Cost      Usage
BITCOMMON            E      0       0       0        0.0%
EEDATA             100      0       0       0        0.0%
NULL                 0      0       0       0        0.0%
CODE                 0      0       0       0        0.0%
COMMON               E      5       C       1       85.7%
BITSFR0              0      0       0       1        0.0%
SFR0                 0      0       0       1        0.0%
BITSFR1              0      0       0       2        0.0%
SFR1                 0      0       0       2        0.0%
STACK                0      0       0       2        0.0%
ABS                  0      0      12       3        0.0%
BITBANK0            50      0       0       4        0.0%
BITSFR3              0      0       0       4        0.0%
SFR3                 0      0       0       4        0.0%
BANK0               50      2       6       5        7.5%
BITSFR2              0      0       0       5        0.0%
SFR2                 0      0       0       5        0.0%
BITBANK1            50      0       0       6        0.0%
BANK1               50      0       0       7        0.0%
BITBANK3            60      0       0       8        0.0%
BANK3               60      0       0       9        0.0%
BITBANK2            60      0       0      10        0.0%
BANK2               60      0       0      11        0.0%
DATA                 0      0      12      12        0.0%


Microchip Technology PIC Macro Assembler V2.10 build 88905656 
Symbol Table                                                                                   Tue Nov 01 15:59:33 2022

            __CFG_CP$OFF 0000                       l53 00EB                       l62 0128  
                     l56 00F3                       l65 019A                       l49 01A1  
                     l74 004B                       l82 00A4                       l76 005B  
                     l85 019F                       l93 00B8                       l69 0021  
                     l95 00C4                       l79 0078                       l89 00A6  
                     l98 00E9                       u40 0027                       u41 0026  
                     u50 002B                       u51 002A                       u60 0034  
                     u61 0033                       u70 0038                       u71 0037  
                     u80 0041                       u81 0040                       u90 0045  
                     u91 0044                      l107 018E                      l133 0176  
                    l901 00CE                      l903 00D0                      l831 002B  
                    l751 01A0                      l905 00D6                      l753 0196  
                    l841 003C                      l833 002F                      l761 0182  
                    l755 019B                      l771 015F                      l763 0156  
                    l851 0051                      l843 003D                      l835 0030  
                    l827 0020                      l781 0164                      l773 0160  
                    l765 015A                      l861 0069                      l853 0055  
                    l845 0041                      l837 0034                      l829 0027  
                    l757 0177                      l791 0169                      l783 0165  
                    l775 0161                      l767 015D                      l871 007E  
                    l863 006A                      l855 0059                      l847 0045  
                    l839 0038                      l759 017A                      l793 016A  
                    l785 0166                      l777 0162                      l769 015E  
                    l873 0082                      l865 006E                      l857 0061  
                    l849 0049                      l891 00B2                      l795 016B  
                    l787 0167                      l779 0163                      l875 0086  
                    l867 0072                      l859 0065                      l893 00B6  
                    l885 00A5                      l797 0174                      l789 0168  
                    l877 0088                      l869 0076                      l895 00BE  
                    l887 00AC                      l799 0175                      l879 008E  
                    l897 00C2                      l889 00B0                      l899 00CA  
                    _GIE 005F                      u100 0051                      u101 0050  
                    u110 0055                      u111 0054                      u200 00CA  
                    u120 0061                      u201 00C9                      u121 0060  
                    u130 0065                      u131 0064                      u140 006E  
                    u141 006D                      u150 0072                      u230 00EF  
                    u151 0071                      u231 00EE                      u160 007E  
                    u240 00F7                      u161 007D                      u241 00F6  
                    u170 0082                      u250 010B                      u171 0081  
                    u251 010A                      u180 00AC                      u181 00AB  
                    u190 00BE                      u191 00BD             __CFG_CPD$OFF 0000  
                    u267 017C                      u277 0189                      u287 016F  
                    _PSA 040B                      _isr 018F             __CFG_IESO$ON 0000  
           __CFG_FOSC$XT 0000          ??_comidaMEFInit 0079             __CFG_LVP$OFF 0000  
                   l1111 00EA                     l1121 00FE                     l1113 00EF  
                   l1123 0100                     l1115 00F7                     l1131 0113  
                   l1221 0096                     l1125 0105                     l1117 00F8  
                   l1141 0131                     l1223 00DE                     l1127 010B  
                   l1119 00FA                     l1151 013E                     l1143 0132  
                   l1129 010D                     l1153 0143                     l1145 0133  
                   l1137 0129                     l1219 011D                     l1155 0148  
                   l1147 0134                     l1139 012E                     l1157 014D  
                   l1149 0139                     ?_isr 0077                     _T0CS 040D  
           __CFG_WRT$OFF 0000            __CFG_FCMEN$ON 0000                     _main 0129  
                   btemp 007E                     start 000C     __size_of_aguaMEFInit 0005  
          __CFG_MCLRE$ON 0000                    ??_isr 0077                    ?_main 0077  
          __CFG_WDTE$OFF 0000                    _ANSEL 0188                    _IOCB5 04B5  
                  i1l159 018F          __end_of_aguaMEF 00EA          __end_of_appInit 0177  
         __CFG_BOREN$OFF 0000                    pclath 000A                    status 0003  
                  wtemp0 007E          __initialization 000F             __end_of_main 0156  
                 ??_main 007C                   _ANSELH 0189                   _TMR0IE 005D  
         __CFG_PWRTE$OFF 0000                ??_aguaMEF 007A                ??_appInit 0079  
       __end_of_platoMEF 0129                   saved_w 007E  __end_of__initialization 001C  
         __pcstackCOMMON 0077            ?_platoMEFInit 0077           _OPTION_REGbits 0081  
     __size_of_comidaMEF 0085               __pbssBANK0 0020               _tHeartbeat 0020  
             __pmaintext 0129               __pintentry 0004           ??_platoMEFInit 0079  
  __end_of_comidaMEFInit 019B            ??_aguaMEFInit 0079                ?_platoMEF 0077  
      __end_of_comidaMEF 00A5               _estadoAgua 0074                  _aguaMEF 00A5  
                _appInit 0156                  __ptext1 00EA                  __ptext2 0177  
                __ptext3 01A0                  __ptext4 0020                  __ptext5 0196  
                __ptext6 0156                  __ptext7 00A5                  __ptext8 019B  
                __ptext9 018F             __size_of_isr 0007     end_of_initialization 001C  
          ?_servoHorario 0077               ??_platoMEF 0024      __end_of_aguaMEFInit 01A0  
              _PORTAbits 0005                _PORTBbits 0006                _PORTDbits 0008  
              _PORTEbits 0009                _TRISAbits 0085                _TRISBbits 0086  
              _TRISDbits 0088                _TRISEbits 0089           ??_servoHorario 0079  
   __end_of_platoMEFInit 01A2      start_initialization 000F              __end_of_isr 0196  
            _aguaMEFInit 019B             _estadoComida 0075              __pbssCOMMON 0070  
              ___latbits 0002            __pcstackBANK0 0024        __size_of_platoMEF 003F  
              _comidaMEF 0020                 ?_aguaMEF 0077                 ?_appInit 0077  
   __end_of_servoHorario 018F    __size_of_platoMEFInit 0002        interrupt_function 0004  
              _tickColor 0022               ?_comidaMEF 0077   __size_of_comidaMEFInit 0005  
           _platoMEFInit 01A0              _estadoPlato 0076         __size_of_aguaMEF 0045  
       __size_of_appInit 0021          mideColorAzul@t1 0072        __CFG_BOR4V$BOR21V 0000  
          _comidaMEFInit 0196            __size_of_main 002D             ?_aguaMEFInit 0077  
               _platoMEF 00EA              ??_comidaMEF 007A    __size_of_servoHorario 0018  
            _tickCounter 0070           ?_comidaMEFInit 0077                 intlevel1 0000  
           _servoHorario 0177  
